target datalayout = "e-m:e-p270:32:32-p271:32:32-p272:64:64-i64:64-i128:128-f80:128-n8:16:32:64-S128"
target triple = "x86_64-pc-linux-gnu"

%struct.Agobj_s = type { %struct.Agtag_s, ptr }
%struct.Agtag_s = type { i32, i64 }
%struct.Agraphinfo_t = type { %struct.Agrec_s, ptr, ptr, %struct.boxf, [4 x %struct.pointf_s], i8, i8, i8, i8, i32, double, double, i16, ptr, ptr, ptr, ptr, i32, ptr, ptr, ptr, ptr, i16, i16, i32, ptr, ptr, ptr, ptr, ptr, i32, ptr, ptr, %struct.nlist_t, ptr, ptr, i32, i32, i8, i8, i32, i32, i32, ptr, ptr, ptr, ptr, i8, i8, i8, i8, i8 }
%struct.Agrec_s = type { ptr, ptr }
%struct.boxf = type { %struct.pointf_s, %struct.pointf_s }
%struct.pointf_s = type { double, double }
%struct.nlist_t = type { ptr, i64 }
%struct.rank_t = type { i32, ptr, i32, ptr, double, double, double, double, i8, i8, i64, ptr }

@.str.5 = private unnamed_addr constant [13 x i8] c"Agraphinfo_t\00", align 1

; Function Attrs: nounwind uwtable
define internal void @dot_cleanup_graph(ptr noundef %0) #0 {
  %2 = alloca ptr, align 8
  %3 = alloca i32, align 4
  %4 = alloca ptr, align 8
  %5 = alloca i32, align 4
  store ptr %0, ptr %2, align 8, !tbaa !3
  call void @llvm.lifetime.start.p0(i64 4, ptr %3) #12
  call void @llvm.lifetime.start.p0(i64 8, ptr %4) #12
  %6 = load ptr, ptr %2, align 8, !tbaa !3
  %7 = call ptr @agfstsubg(ptr noundef %6)
  store ptr %7, ptr %4, align 8, !tbaa !3
  br label %8

8:                                                ; preds = %13, %1
  %9 = load ptr, ptr %4, align 8, !tbaa !3
  %10 = icmp ne ptr %9, null
  br i1 %10, label %11, label %16

11:                                               ; preds = %8
  %12 = load ptr, ptr %4, align 8, !tbaa !3
  call void @dot_cleanup_graph(ptr noundef %12)
  br label %13

13:                                               ; preds = %11
  %14 = load ptr, ptr %4, align 8, !tbaa !3
  %15 = call ptr @agnxtsubg(ptr noundef %14)
  store ptr %15, ptr %4, align 8, !tbaa !3
  br label %8, !llvm.loop !93

16:                                               ; preds = %8
  %17 = load ptr, ptr %2, align 8, !tbaa !3
  %18 = getelementptr inbounds nuw %struct.Agobj_s, ptr %17, i32 0, i32 1
  %19 = load ptr, ptr %18, align 8, !tbaa !16
  %20 = getelementptr inbounds nuw %struct.Agraphinfo_t, ptr %19, i32 0, i32 1
  %21 = load ptr, ptr %20, align 8, !tbaa !94
  call void @free(ptr noundef %21) #12
  %22 = load ptr, ptr %2, align 8, !tbaa !3
  %23 = getelementptr inbounds nuw %struct.Agobj_s, ptr %22, i32 0, i32 1
  %24 = load ptr, ptr %23, align 8, !tbaa !16
  %25 = getelementptr inbounds nuw %struct.Agraphinfo_t, ptr %24, i32 0, i32 1
  store ptr null, ptr %25, align 8, !tbaa !94
  %26 = load ptr, ptr %2, align 8, !tbaa !3
  %27 = call ptr @agbindrec(ptr noundef %26, ptr noundef @.str.5, i32 noundef 0, i32 noundef 1)
  %28 = icmp ne ptr %27, null
  br i1 %28, label %30, label %29

29:                                               ; preds = %16
  store i32 1, ptr %5, align 4
  br label %114

30:                                               ; preds = %16
  %31 = load ptr, ptr %2, align 8, !tbaa !3
  %32 = getelementptr inbounds nuw %struct.Agobj_s, ptr %31, i32 0, i32 1
  %33 = load ptr, ptr %32, align 8, !tbaa !16
  %34 = getelementptr inbounds nuw %struct.Agraphinfo_t, ptr %33, i32 0, i32 25
  %35 = load ptr, ptr %34, align 8, !tbaa !95
  call void @free(ptr noundef %35) #12
  %36 = load ptr, ptr %2, align 8, !tbaa !3
  %37 = getelementptr inbounds nuw %struct.Agobj_s, ptr %36, i32 0, i32 1
  %38 = load ptr, ptr %37, align 8, !tbaa !16
  %39 = getelementptr inbounds nuw %struct.Agraphinfo_t, ptr %38, i32 0, i32 46
  %40 = load ptr, ptr %39, align 8, !tbaa !96
  call void @free(ptr noundef %40) #12
  %41 = load ptr, ptr %2, align 8, !tbaa !3
  %42 = getelementptr inbounds nuw %struct.Agobj_s, ptr %41, i32 0, i32 1
  %43 = load ptr, ptr %42, align 8, !tbaa !16
  %44 = getelementptr inbounds nuw %struct.Agraphinfo_t, ptr %43, i32 0, i32 33
  %45 = getelementptr inbounds nuw %struct.nlist_t, ptr %44, i32 0, i32 0
  %46 = load ptr, ptr %45, align 8, !tbaa !97
  call void @free(ptr noundef %46) #12
  %47 = load ptr, ptr %2, align 8, !tbaa !3
  %48 = getelementptr inbounds nuw %struct.Agobj_s, ptr %47, i32 0, i32 1
  %49 = load ptr, ptr %48, align 8, !tbaa !16
  %50 = getelementptr inbounds nuw %struct.Agraphinfo_t, ptr %49, i32 0, i32 28
  %51 = load ptr, ptr %50, align 8, !tbaa !98
  %52 = icmp ne ptr %51, null
  br i1 %52, label %53, label %102

53:                                               ; preds = %30
  %54 = load ptr, ptr %2, align 8, !tbaa !3
  %55 = getelementptr inbounds nuw %struct.Agobj_s, ptr %54, i32 0, i32 1
  %56 = load ptr, ptr %55, align 8, !tbaa !16
  %57 = getelementptr inbounds nuw %struct.Agraphinfo_t, ptr %56, i32 0, i32 36
  %58 = load i32, ptr %57, align 8, !tbaa !99
  store i32 %58, ptr %3, align 4, !tbaa !72
  br label %59

59:                                               ; preds = %78, %53
  %60 = load i32, ptr %3, align 4, !tbaa !72
  %61 = load ptr, ptr %2, align 8, !tbaa !3
  %62 = getelementptr inbounds nuw %struct.Agobj_s, ptr %61, i32 0, i32 1
  %63 = load ptr, ptr %62, align 8, !tbaa !16
  %64 = getelementptr inbounds nuw %struct.Agraphinfo_t, ptr %63, i32 0, i32 37
  %65 = load i32, ptr %64, align 4, !tbaa !100
  %66 = icmp sle i32 %60, %65
  br i1 %66, label %67, label %81

67:                                               ; preds = %59
  %68 = load ptr, ptr %2, align 8, !tbaa !3
  %69 = getelementptr inbounds nuw %struct.Agobj_s, ptr %68, i32 0, i32 1
  %70 = load ptr, ptr %69, align 8, !tbaa !16
  %71 = getelementptr inbounds nuw %struct.Agraphinfo_t, ptr %70, i32 0, i32 28
  %72 = load ptr, ptr %71, align 8, !tbaa !98
  %73 = load i32, ptr %3, align 4, !tbaa !72
  %74 = sext i32 %73 to i64
  %75 = getelementptr inbounds %struct.rank_t, ptr %72, i64 %74
  %76 = getelementptr inbounds nuw %struct.rank_t, ptr %75, i32 0, i32 3
  %77 = load ptr, ptr %76, align 8, !tbaa !101
  call void @free(ptr noundef %77) #12
  br label %78

78:                                               ; preds = %67
  %79 = load i32, ptr %3, align 4, !tbaa !72
  %80 = add nsw i32 %79, 1
  store i32 %80, ptr %3, align 4, !tbaa !72
  br label %59, !llvm.loop !104

81:                                               ; preds = %59
  %82 = load ptr, ptr %2, align 8, !tbaa !3
  %83 = getelementptr inbounds nuw %struct.Agobj_s, ptr %82, i32 0, i32 1
  %84 = load ptr, ptr %83, align 8, !tbaa !16
  %85 = getelementptr inbounds nuw %struct.Agraphinfo_t, ptr %84, i32 0, i32 36
  %86 = load i32, ptr %85, align 8, !tbaa !99
  %87 = icmp eq i32 %86, -1
  br i1 %87, label %88, label %95

88:                                               ; preds = %81
  %89 = load ptr, ptr %2, align 8, !tbaa !3
  %90 = getelementptr inbounds nuw %struct.Agobj_s, ptr %89, i32 0, i32 1
  %91 = load ptr, ptr %90, align 8, !tbaa !16
  %92 = getelementptr inbounds nuw %struct.Agraphinfo_t, ptr %91, i32 0, i32 28
  %93 = load ptr, ptr %92, align 8, !tbaa !98
  %94 = getelementptr inbounds %struct.rank_t, ptr %93, i64 -1
  call void @free(ptr noundef %94) #12
  br label %101

95:                                               ; preds = %81
  %96 = load ptr, ptr %2, align 8, !tbaa !3
  %97 = getelementptr inbounds nuw %struct.Agobj_s, ptr %96, i32 0, i32 1
  %98 = load ptr, ptr %97, align 8, !tbaa !16
  %99 = getelementptr inbounds nuw %struct.Agraphinfo_t, ptr %98, i32 0, i32 28
  %100 = load ptr, ptr %99, align 8, !tbaa !98
  call void @free(ptr noundef %100) #12
  br label %101

101:                                              ; preds = %95, %88
  br label %102

102:                                              ; preds = %101, %30
  %103 = load ptr, ptr %2, align 8, !tbaa !3
  %104 = load ptr, ptr %2, align 8, !tbaa !3
  %105 = call ptr @agroot(ptr noundef %104)
  %106 = icmp ne ptr %103, %105
  br i1 %106, label %107, label %113

107:                                              ; preds = %102
  %108 = load ptr, ptr %2, align 8, !tbaa !3
  %109 = getelementptr inbounds nuw %struct.Agobj_s, ptr %108, i32 0, i32 1
  %110 = load ptr, ptr %109, align 8, !tbaa !16
  %111 = getelementptr inbounds nuw %struct.Agraphinfo_t, ptr %110, i32 0, i32 2
  %112 = load ptr, ptr %111, align 8, !tbaa !105
  call void @free_label(ptr noundef %112)
  br label %113

113:                                              ; preds = %107, %102
  store i32 0, ptr %5, align 4
  br label %114

114:                                              ; preds = %113, %29
  call void @llvm.lifetime.end.p0(i64 8, ptr %4) #12
  call void @llvm.lifetime.end.p0(i64 4, ptr %3) #12
  %115 = load i32, ptr %5, align 4
  switch i32 %115, label %117 [
    i32 0, label %116
    i32 1, label %116
  ]

116:                                              ; preds = %114, %114
  ret void

117:                                              ; preds = %114
  unreachable
}