; Function Attrs: nounwind uwtable
define internal fastcc void @dot_cleanup_graph(ptr noundef %0) unnamed_addr #0 {
  %2 = tail call ptr @agfstsubg(ptr noundef %0) #15
  %.not27 = icmp eq ptr %2, null
  br i1 %.not27, label %._crit_edge, label %.lr.ph

.lr.ph:                                           ; preds = %1, %.lr.ph
  %.028 = phi ptr [ %3, %.lr.ph ], [ %2, %1 ]
  tail call fastcc void @dot_cleanup_graph(ptr noundef nonnull %.028)
  %3 = tail call ptr @agnxtsubg(ptr noundef nonnull %.028) #15
  %.not = icmp eq ptr %3, null
  br i1 %.not, label %._crit_edge, label %.lr.ph, !llvm.loop !94

._crit_edge:                                      ; preds = %.lr.ph, %1
  %4 = getelementptr inbounds nuw i8, ptr %0, i64 16
  %5 = load ptr, ptr %4, align 8, !tbaa !3
  %6 = getelementptr inbounds nuw i8, ptr %5, i64 16
  %7 = load ptr, ptr %6, align 8, !tbaa !95
  tail call void @free(ptr noundef %7) #15
  %8 = load ptr, ptr %4, align 8, !tbaa !3
  %9 = getelementptr inbounds nuw i8, ptr %8, i64 16
  store ptr null, ptr %9, align 8, !tbaa !95
  %10 = tail call ptr @agbindrec(ptr noundef %0, ptr noundef nonnull @.str.5, i32 noundef 0, i32 noundef 1) #15
  %.not23 = icmp eq ptr %10, null
  br i1 %.not23, label %49, label %11

11:                                               ; preds = %._crit_edge
  %12 = load ptr, ptr %4, align 8, !tbaa !3
  %13 = getelementptr inbounds nuw i8, ptr %12, i64 240
  %14 = load ptr, ptr %13, align 8, !tbaa !96
  tail call void @free(ptr noundef %14) #15
  %15 = load ptr, ptr %4, align 8, !tbaa !3
  %16 = getelementptr inbounds nuw i8, ptr %15, i64 384
  %17 = load ptr, ptr %16, align 8, !tbaa !97
  tail call void @free(ptr noundef %17) #15
  %18 = load ptr, ptr %4, align 8, !tbaa !3
  %19 = getelementptr inbounds nuw i8, ptr %18, i64 304
  %20 = load ptr, ptr %19, align 8, !tbaa !98
  tail call void @free(ptr noundef %20) #15
  %21 = load ptr, ptr %4, align 8, !tbaa !3
  %22 = getelementptr inbounds nuw i8, ptr %21, i64 264
  %23 = load ptr, ptr %22, align 8, !tbaa !99
  %.not24 = icmp eq ptr %23, null
  br i1 %.not24, label %43, label %24

24:                                               ; preds = %11
  %25 = getelementptr inbounds nuw i8, ptr %21, i64 336
  %26 = load i32, ptr %25, align 8, !tbaa !100
  %27 = getelementptr inbounds nuw i8, ptr %21, i64 340
  %28 = load i32, ptr %27, align 4, !tbaa !101
  %.not2529 = icmp sgt i32 %26, %28
  br i1 %.not2529, label %._crit_edge33, label %.lr.ph32.preheader

.lr.ph32.preheader:                               ; preds = %24
  %29 = sext i32 %26 to i64
  br label %.lr.ph32

.lr.ph32:                                         ; preds = %.lr.ph32.preheader, %.lr.ph32
  %indvars.iv = phi i64 [ %29, %.lr.ph32.preheader ], [ %indvars.iv.next, %.lr.ph32 ]
  %30 = phi ptr [ %21, %.lr.ph32.preheader ], [ %35, %.lr.ph32 ]
  %31 = getelementptr inbounds nuw i8, ptr %30, i64 264
  %32 = load ptr, ptr %31, align 8, !tbaa !99
  %33 = getelementptr inbounds %struct.rank_t, ptr %32, i64 %indvars.iv, i32 3
  %34 = load ptr, ptr %33, align 8, !tbaa !102
  tail call void @free(ptr noundef %34) #15
  %indvars.iv.next = add nsw i64 %indvars.iv, 1
  %35 = load ptr, ptr %4, align 8, !tbaa !3
  %36 = getelementptr inbounds nuw i8, ptr %35, i64 340
  %37 = load i32, ptr %36, align 4, !tbaa !101
  %38 = sext i32 %37 to i64
  %.not25.not = icmp slt i64 %indvars.iv, %38
  br i1 %.not25.not, label %.lr.ph32, label %._crit_edge33.loopexit, !llvm.loop !105

._crit_edge33.loopexit:                           ; preds = %.lr.ph32
  %.phi.trans.insert = getelementptr inbounds nuw i8, ptr %35, i64 336
  %.pre = load i32, ptr %.phi.trans.insert, align 8, !tbaa !100
  br label %._crit_edge33

._crit_edge33:                                    ; preds = %._crit_edge33.loopexit, %24
  %39 = phi i32 [ %26, %24 ], [ %.pre, %._crit_edge33.loopexit ]
  %.lcssa = phi ptr [ %21, %24 ], [ %35, %._crit_edge33.loopexit ]
  %40 = icmp eq i32 %39, -1
  %41 = getelementptr inbounds nuw i8, ptr %.lcssa, i64 264
  %42 = load ptr, ptr %41, align 8, !tbaa !99
  %.sink.idx = select i1 %40, i64 -88, i64 0
  %.sink = getelementptr inbounds i8, ptr %42, i64 %.sink.idx
  tail call void @free(ptr noundef %.sink) #15
  br label %43

43:                                               ; preds = %._crit_edge33, %11
  %44 = tail call ptr @agroot(ptr noundef nonnull %0) #15
  %.not26 = icmp eq ptr %0, %44
  br i1 %.not26, label %49, label %45

45:                                               ; preds = %43
  %46 = load ptr, ptr %4, align 8, !tbaa !3
  %47 = getelementptr inbounds nuw i8, ptr %46, i64 24
  %48 = load ptr, ptr %47, align 8, !tbaa !106
  tail call void @free_label(ptr noundef %48) #15
  br label %49

49:                                               ; preds = %43, %45, %._crit_edge
  ret void
}